target datalayout = "e-m:e-p270:32:32-p271:32:32-p272:64:64-i64:64-i128:128-f80:128-n8:16:32:64-S128"
target triple = "x86_64-pc-linux-gnu"

%struct.stbi__zhuffman = type { [512 x i16], [16 x i16], [17 x i32], [16 x i16], [288 x i8], [288 x i16] }
%struct.stbi__zbuf = type { ptr, ptr, i32, i32, i32, ptr, ptr, ptr, i32, %struct.stbi__zhuffman, %struct.stbi__zhuffman }

; Function Attrs: nounwind uwtable
define i32 @stbi__bitreverse16(i32 noundef %0) #0 {
  %2 = alloca i32, align 4
  store i32 %0, ptr %2, align 4, !tbaa !9
  %3 = load i32, ptr %2, align 4, !tbaa !9
  %4 = and i32 %3, 43690
  %5 = ashr i32 %4, 1
  %6 = load i32, ptr %2, align 4, !tbaa !9
  %7 = and i32 %6, 21845
  %8 = shl i32 %7, 1
  %9 = or i32 %5, %8
  store i32 %9, ptr %2, align 4, !tbaa !9
  %10 = load i32, ptr %2, align 4, !tbaa !9
  %11 = and i32 %10, 52428
  %12 = ashr i32 %11, 2
  %13 = load i32, ptr %2, align 4, !tbaa !9
  %14 = and i32 %13, 13107
  %15 = shl i32 %14, 2
  %16 = or i32 %12, %15
  store i32 %16, ptr %2, align 4, !tbaa !9
  %17 = load i32, ptr %2, align 4, !tbaa !9
  %18 = and i32 %17, 61680
  %19 = ashr i32 %18, 4
  %20 = load i32, ptr %2, align 4, !tbaa !9
  %21 = and i32 %20, 3855
  %22 = shl i32 %21, 4
  %23 = or i32 %19, %22
  store i32 %23, ptr %2, align 4, !tbaa !9
  %24 = load i32, ptr %2, align 4, !tbaa !9
  %25 = and i32 %24, 65280
  %26 = ashr i32 %25, 8
  %27 = load i32, ptr %2, align 4, !tbaa !9
  %28 = and i32 %27, 255
  %29 = shl i32 %28, 8
  %30 = or i32 %26, %29
  store i32 %30, ptr %2, align 4, !tbaa !9
  %31 = load i32, ptr %2, align 4, !tbaa !9
  ret i32 %31
}

; Function Attrs: nounwind uwtable
define i32 @stbi__bit_reverse(i32 noundef %0, i32 noundef %1) #0 {
  %3 = alloca i32, align 4
  %4 = alloca i32, align 4
  store i32 %0, ptr %3, align 4, !tbaa !9
  store i32 %1, ptr %4, align 4, !tbaa !9
  %5 = load i32, ptr %3, align 4, !tbaa !9
  %6 = call i32 @stbi__bitreverse16(i32 noundef %5)
  %7 = load i32, ptr %4, align 4, !tbaa !9
  %8 = sub nsw i32 16, %7
  %9 = ashr i32 %6, %8
  ret i32 %9
}

; Function Attrs: nounwind uwtable
define i32 @stbi__zhuffman_decode_slowpath(ptr noundef %0, ptr noundef %1) #0 {
  %3 = alloca i32, align 4
  %4 = alloca ptr, align 8
  %5 = alloca ptr, align 8
  %6 = alloca i32, align 4
  %7 = alloca i32, align 4
  %8 = alloca i32, align 4
  %9 = alloca i32, align 4
  store ptr %0, ptr %4, align 8, !tbaa !3
  store ptr %1, ptr %5, align 8, !tbaa !3
  call void @llvm.lifetime.start.p0(i64 4, ptr %6) #13
  call void @llvm.lifetime.start.p0(i64 4, ptr %7) #13
  call void @llvm.lifetime.start.p0(i64 4, ptr %8) #13
  %10 = load ptr, ptr %4, align 8, !tbaa !3
  %11 = getelementptr inbounds nuw %struct.stbi__zbuf, ptr %10, i32 0, i32 4
  %12 = load i32, ptr %11, align 8, !tbaa !289
  %13 = call i32 @stbi__bit_reverse(i32 noundef %12, i32 noundef 16)
  store i32 %13, ptr %8, align 4, !tbaa !9
  store i32 10, ptr %7, align 4, !tbaa !9
  br label %14

14:                                               ; preds = %25, %2
  %15 = load i32, ptr %8, align 4, !tbaa !9
  %16 = load ptr, ptr %5, align 8, !tbaa !3
  %17 = getelementptr inbounds nuw %struct.stbi__zhuffman, ptr %16, i32 0, i32 2
  %18 = load i32, ptr %7, align 4, !tbaa !9
  %19 = sext i32 %18 to i64
  %20 = getelementptr inbounds [17 x i32], ptr %17, i64 0, i64 %19
  %21 = load i32, ptr %20, align 4, !tbaa !9
  %22 = icmp slt i32 %15, %21
  br i1 %22, label %23, label %24

23:                                               ; preds = %14
  br label %28

24:                                               ; preds = %14
  br label %25

25:                                               ; preds = %24
  %26 = load i32, ptr %7, align 4, !tbaa !9
  %27 = add nsw i32 %26, 1
  store i32 %27, ptr %7, align 4, !tbaa !9
  br label %14

28:                                               ; preds = %23
  %29 = load i32, ptr %7, align 4, !tbaa !9
  %30 = icmp sge i32 %29, 16
  br i1 %30, label %31, label %32

31:                                               ; preds = %28
  store i32 -1, ptr %3, align 4
  store i32 1, ptr %9, align 4
  br label %85

32:                                               ; preds = %28
  %33 = load i32, ptr %8, align 4, !tbaa !9
  %34 = load i32, ptr %7, align 4, !tbaa !9
  %35 = sub nsw i32 16, %34
  %36 = ashr i32 %33, %35
  %37 = load ptr, ptr %5, align 8, !tbaa !3
  %38 = getelementptr inbounds nuw %struct.stbi__zhuffman, ptr %37, i32 0, i32 1
  %39 = load i32, ptr %7, align 4, !tbaa !9
  %40 = sext i32 %39 to i64
  %41 = getelementptr inbounds [16 x i16], ptr %38, i64 0, i64 %40
  %42 = load i16, ptr %41, align 2, !tbaa !73
  %43 = zext i16 %42 to i32
  %44 = sub nsw i32 %36, %43
  %45 = load ptr, ptr %5, align 8, !tbaa !3
  %46 = getelementptr inbounds nuw %struct.stbi__zhuffman, ptr %45, i32 0, i32 3
  %47 = load i32, ptr %7, align 4, !tbaa !9
  %48 = sext i32 %47 to i64
  %49 = getelementptr inbounds [16 x i16], ptr %46, i64 0, i64 %48
  %50 = load i16, ptr %49, align 2, !tbaa !73
  %51 = zext i16 %50 to i32
  %52 = add nsw i32 %44, %51
  store i32 %52, ptr %6, align 4, !tbaa !9
  %53 = load i32, ptr %6, align 4, !tbaa !9
  %54 = icmp sge i32 %53, 288
  br i1 %54, label %55, label %56

55:                                               ; preds = %32
  store i32 -1, ptr %3, align 4
  store i32 1, ptr %9, align 4
  br label %85

56:                                               ; preds = %32
  %57 = load ptr, ptr %5, align 8, !tbaa !3
  %58 = getelementptr inbounds nuw %struct.stbi__zhuffman, ptr %57, i32 0, i32 4
  %59 = load i32, ptr %6, align 4, !tbaa !9
  %60 = sext i32 %59 to i64
  %61 = getelementptr inbounds [288 x i8], ptr %58, i64 0, i64 %60
  %62 = load i8, ptr %61, align 1, !tbaa !23
  %63 = zext i8 %62 to i32
  %64 = load i32, ptr %7, align 4, !tbaa !9
  %65 = icmp ne i32 %63, %64
  br i1 %65, label %66, label %67

66:                                               ; preds = %56
  store i32 -1, ptr %3, align 4
  store i32 1, ptr %9, align 4
  br label %85

67:                                               ; preds = %56
  %68 = load i32, ptr %7, align 4, !tbaa !9
  %69 = load ptr, ptr %4, align 8, !tbaa !3
  %70 = getelementptr inbounds nuw %struct.stbi__zbuf, ptr %69, i32 0, i32 4
  %71 = load i32, ptr %70, align 8, !tbaa !289
  %72 = lshr i32 %71, %68
  store i32 %72, ptr %70, align 8, !tbaa !289
  %73 = load i32, ptr %7, align 4, !tbaa !9
  %74 = load ptr, ptr %4, align 8, !tbaa !3
  %75 = getelementptr inbounds nuw %struct.stbi__zbuf, ptr %74, i32 0, i32 2
  %76 = load i32, ptr %75, align 8, !tbaa !290
  %77 = sub nsw i32 %76, %73
  store i32 %77, ptr %75, align 8, !tbaa !290
  %78 = load ptr, ptr %5, align 8, !tbaa !3
  %79 = getelementptr inbounds nuw %struct.stbi__zhuffman, ptr %78, i32 0, i32 5
  %80 = load i32, ptr %6, align 4, !tbaa !9
  %81 = sext i32 %80 to i64
  %82 = getelementptr inbounds [288 x i16], ptr %79, i64 0, i64 %81
  %83 = load i16, ptr %82, align 2, !tbaa !73
  %84 = zext i16 %83 to i32
  store i32 %84, ptr %3, align 4
  store i32 1, ptr %9, align 4
  br label %85

85:                                               ; preds = %67, %66, %55, %31
  call void @llvm.lifetime.end.p0(i64 4, ptr %8) #13
  call void @llvm.lifetime.end.p0(i64 4, ptr %7) #13
  call void @llvm.lifetime.end.p0(i64 4, ptr %6) #13
  %86 = load i32, ptr %3, align 4
  ret i32 %86
}