; Function Attrs: nofree norecurse nosync nounwind memory(argmem: readwrite) uwtable
define range(i32 -1, 65536) i32 @stbi__zhuffman_decode_slowpath(ptr noundef captures(none) %0, ptr noundef readonly captures(none) %1) local_unnamed_addr #18 {
  %3 = getelementptr inbounds nuw i8, ptr %0, i64 24
  %4 = load i32, ptr %3, align 8, !tbaa !279
  %trunc.i.i = trunc i32 %4 to i16
  %rev.i.i = tail call i16 @llvm.bitreverse.i16(i16 %trunc.i.i)
  %5 = zext i16 %rev.i.i to i32
  %6 = getelementptr inbounds nuw i8, ptr %1, i64 1056
  br label %7

7:                                                ; preds = %7, %2
  %indvars.iv = phi i64 [ %indvars.iv.next, %7 ], [ 10, %2 ]
  %8 = getelementptr inbounds nuw [17 x i32], ptr %6, i64 0, i64 %indvars.iv
  %9 = load i32, ptr %8, align 4, !tbaa !23
  %10 = icmp sgt i32 %9, %5
  %indvars.iv.next = add nuw nsw i64 %indvars.iv, 1
  br i1 %10, label %11, label %7

11:                                               ; preds = %7
  %12 = trunc nuw nsw i64 %indvars.iv to i32
  %13 = icmp samesign ugt i64 %indvars.iv, 15
  br i1 %13, label %43, label %14

14:                                               ; preds = %11
  %15 = sub nuw nsw i32 16, %12
  %16 = lshr i32 %5, %15
  %17 = getelementptr inbounds nuw i8, ptr %1, i64 1024
  %18 = getelementptr inbounds nuw [16 x i16], ptr %17, i64 0, i64 %indvars.iv
  %19 = load i16, ptr %18, align 2, !tbaa !65
  %20 = zext i16 %19 to i32
  %21 = sub nsw i32 %16, %20
  %22 = getelementptr inbounds nuw i8, ptr %1, i64 1124
  %23 = getelementptr inbounds nuw [16 x i16], ptr %22, i64 0, i64 %indvars.iv
  %24 = load i16, ptr %23, align 2, !tbaa !65
  %25 = zext i16 %24 to i32
  %26 = add nsw i32 %21, %25
  %27 = icmp sgt i32 %26, 287
  br i1 %27, label %43, label %28

28:                                               ; preds = %14
  %29 = getelementptr inbounds nuw i8, ptr %1, i64 1156
  %30 = sext i32 %26 to i64
  %31 = getelementptr inbounds [288 x i8], ptr %29, i64 0, i64 %30
  %32 = load i8, ptr %31, align 1, !tbaa !21
  %33 = zext i8 %32 to i64
  %.not = icmp eq i64 %indvars.iv, %33
  br i1 %.not, label %34, label %43

34:                                               ; preds = %28
  %35 = lshr i32 %4, %12
  store i32 %35, ptr %3, align 8, !tbaa !279
  %36 = getelementptr inbounds nuw i8, ptr %0, i64 16
  %37 = load i32, ptr %36, align 8, !tbaa !280
  %38 = sub nsw i32 %37, %12
  store i32 %38, ptr %36, align 8, !tbaa !280
  %39 = getelementptr inbounds nuw i8, ptr %1, i64 1444
  %40 = getelementptr inbounds [288 x i16], ptr %39, i64 0, i64 %30
  %41 = load i16, ptr %40, align 2, !tbaa !65
  %42 = zext i16 %41 to i32
  br label %43

43:                                               ; preds = %28, %14, %11, %34
  %.0 = phi i32 [ %42, %34 ], [ -1, %11 ], [ -1, %14 ], [ -1, %28 ]
  ret i32 %.0
}